target datalayout = "e-m:e-p270:32:32-p271:32:32-p272:64:64-i64:64-i128:128-f80:128-n8:16:32:64-S128"
target triple = "x86_64-pc-linux-gnu"

; Function Attrs: mustprogress nounwind uwtable
define internal noundef i32 @_ZL23hb_ot_old_tag_to_scriptj(i32 noundef %0) #1 {
  %2 = alloca i32, align 4
  %3 = alloca i32, align 4
  store i32 %0, ptr %3, align 4
  %4 = load i32, ptr %3, align 4
  %5 = icmp eq i32 %4, 1145457748
  br i1 %5, label %6, label %7

6:                                                ; preds = %1
  store i32 0, ptr %2, align 4
  br label %34

7:                                                ; preds = %1
  %8 = load i32, ptr %3, align 4
  %9 = icmp eq i32 %8, 1835103336
  br i1 %9, label %10, label %11

10:                                               ; preds = %7
  store i32 1517122664, ptr %2, align 4
  br label %34

11:                                               ; preds = %7
  %12 = load i32, ptr %3, align 4
  %13 = and i32 %12, 65280
  %14 = icmp eq i32 %13, 8192
  br i1 %14, label %15, label %21

15:                                               ; preds = %11
  %16 = load i32, ptr %3, align 4
  %17 = lshr i32 %16, 8
  %18 = and i32 %17, 65280
  %19 = load i32, ptr %3, align 4
  %20 = or i32 %19, %18
  store i32 %20, ptr %3, align 4
  br label %21

21:                                               ; preds = %15, %11
  %22 = load i32, ptr %3, align 4
  %23 = and i32 %22, 255
  %24 = icmp eq i32 %23, 32
  br i1 %24, label %25, label %31

25:                                               ; preds = %21
  %26 = load i32, ptr %3, align 4
  %27 = lshr i32 %26, 8
  %28 = and i32 %27, 255
  %29 = load i32, ptr %3, align 4
  %30 = or i32 %29, %28
  store i32 %30, ptr %3, align 4
  br label %31

31:                                               ; preds = %25, %21
  %32 = load i32, ptr %3, align 4
  %33 = and i32 %32, -536870913
  store i32 %33, ptr %2, align 4
  br label %34

34:                                               ; preds = %31, %10, %6
  %35 = load i32, ptr %2, align 4
  ret i32 %35
}

; Function Attrs: mustprogress nounwind uwtable
define internal noundef i32 @_ZL23hb_ot_new_tag_to_scriptj(i32 noundef %0) #1 {
  %2 = alloca i32, align 4
  %3 = alloca i32, align 4
  store i32 %0, ptr %3, align 4
  %4 = load i32, ptr %3, align 4
  switch i32 %4, label %15 [
    i32 1651402546, label %5
    i32 1684370994, label %6
    i32 1735029298, label %7
    i32 1735750194, label %8
    i32 1802396722, label %9
    i32 1835822386, label %10
    i32 1869773106, label %11
    i32 1953328178, label %12
    i32 1952803890, label %13
    i32 1836674354, label %14
  ]

5:                                                ; preds = %1
  store i32 1113943655, ptr %2, align 4
  br label %16

6:                                                ; preds = %1
  store i32 1147500129, ptr %2, align 4
  br label %16

7:                                                ; preds = %1
  store i32 1198877298, ptr %2, align 4
  br label %16

8:                                                ; preds = %1
  store i32 1198879349, ptr %2, align 4
  br label %16

9:                                                ; preds = %1
  store i32 1265525857, ptr %2, align 4
  br label %16

10:                                               ; preds = %1
  store i32 1298954605, ptr %2, align 4
  br label %16

11:                                               ; preds = %1
  store i32 1332902241, ptr %2, align 4
  br label %16

12:                                               ; preds = %1
  store i32 1415671148, ptr %2, align 4
  br label %16

13:                                               ; preds = %1
  store i32 1415933045, ptr %2, align 4
  br label %16

14:                                               ; preds = %1
  store i32 1299803506, ptr %2, align 4
  br label %16

15:                                               ; preds = %1
  store i32 1517976186, ptr %2, align 4
  br label %16

16:                                               ; preds = %15, %14, %13, %12, %11, %10, %9, %8, %7, %6, %5
  %17 = load i32, ptr %2, align 4
  ret i32 %17
}

; Function Attrs: mustprogress uwtable
define hidden i32 @hb_ot_tag_to_script(i32 noundef %0) #0 {
  %2 = alloca i32, align 4
  %3 = alloca i32, align 4
  %4 = alloca i8, align 1
  store i32 %0, ptr %3, align 4
  %5 = load i32, ptr %3, align 4
  %6 = and i32 %5, 255
  %7 = trunc i32 %6 to i8
  store i8 %7, ptr %4, align 1
  %8 = load i8, ptr %4, align 1
  %9 = zext i8 %8 to i32
  %10 = icmp eq i32 %9, 50
  br i1 %10, label %15, label %11

11:                                               ; preds = %1
  %12 = load i8, ptr %4, align 1
  %13 = zext i8 %12 to i32
  %14 = icmp eq i32 %13, 51
  br i1 %14, label %15, label %19

15:                                               ; preds = %11, %1
  %16 = load i32, ptr %3, align 4
  %17 = and i32 %16, -206
  %18 = call noundef i32 @_ZL23hb_ot_new_tag_to_scriptj(i32 noundef %17)
  store i32 %18, ptr %2, align 4
  br label %22

19:                                               ; preds = %11
  %20 = load i32, ptr %3, align 4
  %21 = call noundef i32 @_ZL23hb_ot_old_tag_to_scriptj(i32 noundef %20)
  store i32 %21, ptr %2, align 4
  br label %22

22:                                               ; preds = %19, %15
  %23 = load i32, ptr %2, align 4
  ret i32 %23
}