; Function Attrs: mustprogress nofree norecurse nosync nounwind willreturn memory(none) uwtable
define hidden range(i32 0, -536870912) i32 @hb_ot_tag_to_script(i32 noundef %0) local_unnamed_addr #1 {
  %2 = and i32 %0, 254
  %or.cond = icmp eq i32 %2, 50
  br i1 %or.cond, label %3, label %15

3:                                                ; preds = %1
  %4 = and i32 %0, -206
  switch i32 %4, label %14 [
    i32 1651402546, label %_ZL23hb_ot_new_tag_to_scriptj.exit
    i32 1684370994, label %5
    i32 1735029298, label %6
    i32 1735750194, label %7
    i32 1802396722, label %8
    i32 1835822386, label %9
    i32 1869773106, label %10
    i32 1953328178, label %11
    i32 1952803890, label %12
    i32 1836674354, label %13
  ]

5:                                                ; preds = %3
  br label %_ZL23hb_ot_new_tag_to_scriptj.exit

6:                                                ; preds = %3
  br label %_ZL23hb_ot_new_tag_to_scriptj.exit

7:                                                ; preds = %3
  br label %_ZL23hb_ot_new_tag_to_scriptj.exit

8:                                                ; preds = %3
  br label %_ZL23hb_ot_new_tag_to_scriptj.exit

9:                                                ; preds = %3
  br label %_ZL23hb_ot_new_tag_to_scriptj.exit

10:                                               ; preds = %3
  br label %_ZL23hb_ot_new_tag_to_scriptj.exit

11:                                               ; preds = %3
  br label %_ZL23hb_ot_new_tag_to_scriptj.exit

12:                                               ; preds = %3
  br label %_ZL23hb_ot_new_tag_to_scriptj.exit

13:                                               ; preds = %3
  br label %_ZL23hb_ot_new_tag_to_scriptj.exit

14:                                               ; preds = %3
  br label %_ZL23hb_ot_new_tag_to_scriptj.exit

15:                                               ; preds = %1
  switch i32 %0, label %17 [
    i32 1145457748, label %_ZL23hb_ot_new_tag_to_scriptj.exit
    i32 1835103336, label %16
  ]

16:                                               ; preds = %15
  br label %_ZL23hb_ot_new_tag_to_scriptj.exit

17:                                               ; preds = %15
  %18 = and i32 %0, 65280
  %19 = icmp eq i32 %18, 8192
  %20 = lshr i32 %0, 8
  %21 = and i32 %20, 57088
  %22 = select i1 %19, i32 %21, i32 0
  %.0.i8 = or disjoint i32 %22, %0
  %23 = and i32 %0, 255
  %24 = icmp eq i32 %23, 32
  %25 = lshr i32 %.0.i8, 8
  %26 = and i32 %25, 255
  %27 = select i1 %24, i32 %26, i32 0
  %.0.masked.i = and i32 %.0.i8, -536870913
  %28 = or i32 %27, %.0.masked.i
  br label %_ZL23hb_ot_new_tag_to_scriptj.exit

_ZL23hb_ot_new_tag_to_scriptj.exit:               ; preds = %17, %16, %15, %14, %13, %12, %11, %10, %9, %8, %7, %6, %5, %3
  %.0 = phi i32 [ 1517976186, %14 ], [ 1299803506, %13 ], [ 1415933045, %12 ], [ 1415671148, %11 ], [ 1332902241, %10 ], [ 1298954605, %9 ], [ 1265525857, %8 ], [ 1198879349, %7 ], [ 1198877298, %6 ], [ 1147500129, %5 ], [ 1113943655, %3 ], [ 1517122664, %16 ], [ %28, %17 ], [ 0, %15 ]
  ret i32 %.0
}